; Function Attrs: mustprogress uwtable
define void @rocksdb_singledelete_cf_with_ts(ptr noundef readonly captures(none) %0, ptr noundef %1, ptr noundef readonly captures(none) %2, ptr noundef %3, i64 noundef %4, ptr noundef %5, i64 noundef %6, ptr noundef captures(none) %7) local_unnamed_addr #0 personality ptr @__gxx_personality_v0 {
  %9 = alloca %"class.rocksdb::Status", align 8
  %10 = alloca %"class.rocksdb::Slice", align 8
  %11 = alloca %"class.rocksdb::Slice", align 8
  call void @llvm.lifetime.start.p0(i64 16, ptr nonnull %9) #43
  %12 = load ptr, ptr %0, align 8, !tbaa !26
  %13 = load ptr, ptr %2, align 8, !tbaa !196
  call void @llvm.lifetime.start.p0(i64 16, ptr nonnull %10) #43
  store ptr %3, ptr %10, align 8, !tbaa !251
  %14 = getelementptr inbounds nuw i8, ptr %10, i64 8
  store i64 %4, ptr %14, align 8, !tbaa !253
  call void @llvm.lifetime.start.p0(i64 16, ptr nonnull %11) #43
  store ptr %5, ptr %11, align 8, !tbaa !251
  %15 = getelementptr inbounds nuw i8, ptr %11, i64 8
  store i64 %6, ptr %15, align 8, !tbaa !253
  %16 = load ptr, ptr %12, align 8, !tbaa !23
  %17 = getelementptr inbounds nuw i8, ptr %16, i64 168
  %18 = load ptr, ptr %17, align 8
  call void %18(ptr dead_on_unwind nonnull writable sret(%"class.rocksdb::Status") align 8 %9, ptr noundef nonnull align 8 dereferenceable(8) %12, ptr noundef nonnull align 8 dereferenceable(25) %1, ptr noundef %13, ptr noundef nonnull align 8 dereferenceable(16) %10, ptr noundef nonnull align 8 dereferenceable(16) %11)
  %19 = invoke fastcc noundef zeroext i1 @_ZL9SaveErrorPPcRKN7rocksdb6StatusE(ptr noundef %7, ptr noundef nonnull align 8 dereferenceable(16) %9)
          to label %20 unwind label %23

20:                                               ; preds = %8
  %21 = getelementptr inbounds nuw i8, ptr %9, i64 8
  %22 = load ptr, ptr %21, align 8, !tbaa !25
  %.not.i.i = icmp eq ptr %22, null
  br i1 %.not.i.i, label %_ZN7rocksdb6StatusD2Ev.exit, label %_ZNKSt14default_deleteIA_KcEclIS0_EENSt9enable_ifIXsr14is_convertibleIPA_T_PS1_EE5valueEvE4typeEPS5_.exit.i.i

_ZNKSt14default_deleteIA_KcEclIS0_EENSt9enable_ifIXsr14is_convertibleIPA_T_PS1_EE5valueEvE4typeEPS5_.exit.i.i: ; preds = %20
  call void @_ZdaPv(ptr noundef nonnull %22) #45
  br label %_ZN7rocksdb6StatusD2Ev.exit

_ZN7rocksdb6StatusD2Ev.exit:                      ; preds = %20, %_ZNKSt14default_deleteIA_KcEclIS0_EENSt9enable_ifIXsr14is_convertibleIPA_T_PS1_EE5valueEvE4typeEPS5_.exit.i.i
  call void @llvm.lifetime.end.p0(i64 16, ptr nonnull %11) #43
  call void @llvm.lifetime.end.p0(i64 16, ptr nonnull %10) #43
  call void @llvm.lifetime.end.p0(i64 16, ptr nonnull %9) #43
  ret void

23:                                               ; preds = %8
  %24 = landingpad { ptr, i32 }
          cleanup
  %25 = getelementptr inbounds nuw i8, ptr %9, i64 8
  %26 = load ptr, ptr %25, align 8, !tbaa !25
  %.not.i.i9 = icmp eq ptr %26, null
  br i1 %.not.i.i9, label %_ZN7rocksdb6StatusD2Ev.exit11, label %_ZNKSt14default_deleteIA_KcEclIS0_EENSt9enable_ifIXsr14is_convertibleIPA_T_PS1_EE5valueEvE4typeEPS5_.exit.i.i10

_ZNKSt14default_deleteIA_KcEclIS0_EENSt9enable_ifIXsr14is_convertibleIPA_T_PS1_EE5valueEvE4typeEPS5_.exit.i.i10: ; preds = %23
  call void @_ZdaPv(ptr noundef nonnull %26) #45
  br label %_ZN7rocksdb6StatusD2Ev.exit11

_ZN7rocksdb6StatusD2Ev.exit11:                    ; preds = %23, %_ZNKSt14default_deleteIA_KcEclIS0_EENSt9enable_ifIXsr14is_convertibleIPA_T_PS1_EE5valueEvE4typeEPS5_.exit.i.i10
  call void @llvm.lifetime.end.p0(i64 16, ptr nonnull %11) #43
  call void @llvm.lifetime.end.p0(i64 16, ptr nonnull %10) #43
  call void @llvm.lifetime.end.p0(i64 16, ptr nonnull %9) #43
  resume { ptr, i32 } %24
}